; Function Attrs: nounwind uwtable
define range(i32 0, 2) i32 @TS_RESP_CTX_add_failure_info(ptr noundef readonly captures(none) %0, i32 noundef %1) local_unnamed_addr #0 {
  %3 = getelementptr inbounds nuw i8, ptr %0, i64 152
  %4 = load ptr, ptr %3, align 8, !tbaa !26
  %5 = load ptr, ptr %4, align 8, !tbaa !27
  %6 = getelementptr inbounds nuw i8, ptr %5, i64 16
  %7 = load ptr, ptr %6, align 8, !tbaa !31
  %8 = icmp eq ptr %7, null
  br i1 %8, label %9, label %12

9:                                                ; preds = %2
  %10 = tail call ptr @ASN1_BIT_STRING_new() #9
  store ptr %10, ptr %6, align 8, !tbaa !31
  %11 = icmp eq ptr %10, null
  br i1 %11, label %15, label %12

12:                                               ; preds = %9, %2
  %13 = phi ptr [ %10, %9 ], [ %7, %2 ]
  %14 = tail call i32 @ASN1_BIT_STRING_set_bit(ptr noundef nonnull %13, i32 noundef %1, i32 noundef 1) #9
  %.not = icmp eq i32 %14, 0
  br i1 %.not, label %15, label %16

15:                                               ; preds = %12, %9
  tail call void @ERR_new() #9
  tail call void @ERR_set_debug(ptr noundef nonnull @.str, i32 noundef 345, ptr noundef nonnull @__func__.TS_RESP_CTX_add_failure_info) #9
  tail call void (i32, i32, ptr, ...) @ERR_set_error(i32 noundef 47, i32 noundef 524301, ptr noundef null) #9
  br label %16

16:                                               ; preds = %12, %15
  %.0 = phi i32 [ 0, %15 ], [ 1, %12 ]
  ret i32 %.0
}